; Function Attrs: mustprogress nounwind uwtable
define dso_local void @_ZN4node6crypto7TLSWrap5CycleEv(ptr noundef nonnull align 8 dereferenceable(457) %this) local_unnamed_addr #3 align 2 {
entry:
  %cycle_depth_ = getelementptr inbounds i8, ptr %this, i64 396
  %0 = load i32, ptr %cycle_depth_, align 4
  %inc = add nsw i32 %0, 1
  store i32 %inc, ptr %cycle_depth_, align 4
  %or.cond = icmp eq i32 %0, 0
  br i1 %or.cond, label %for.body, label %for.end

for.body:                                         ; preds = %entry, %for.body
  tail call void @_ZN4node6crypto7TLSWrap7ClearInEv(ptr noundef nonnull align 8 dereferenceable(457) %this)
  tail call void @_ZN4node6crypto7TLSWrap8ClearOutEv(ptr noundef nonnull align 8 dereferenceable(457) %this)
  tail call void @_ZN4node6crypto7TLSWrap6EncOutEv(ptr noundef nonnull align 8 dereferenceable(457) %this)
  %1 = load i32, ptr %cycle_depth_, align 4
  %dec = add nsw i32 %1, -1
  store i32 %dec, ptr %cycle_depth_, align 4
  %cmp3.old = icmp sgt i32 %1, 1
  br i1 %cmp3.old, label %for.body, label %for.end

for.end:                                          ; preds = %for.body, %entry
  ret void
}